target datalayout = "e-m:e-p270:32:32-p271:32:32-p272:64:64-i64:64-i128:128-f80:128-n8:16:32:64-S128"
target triple = "x86_64-pc-linux-gnu"

; Function Attrs: mustprogress uwtable
define noundef zeroext i1 @_ZNK10OpenSubdiv6v3_6_03Bfr14SurfaceFactory25isFaceNeighborhoodRegularEiPKlPi(ptr noundef nonnull align 8 dereferenceable(56) %0, i32 noundef %1, ptr noundef %2, ptr noundef %3) #1 align 2 {
  %5 = alloca ptr, align 8
  %6 = alloca i32, align 4
  %7 = alloca ptr, align 8
  %8 = alloca ptr, align 8
  store ptr %0, ptr %5, align 8
  store i32 %1, ptr %6, align 4
  store ptr %2, ptr %7, align 8
  store ptr %3, ptr %8, align 8
  %9 = load ptr, ptr %5, align 8
  %10 = load ptr, ptr %7, align 8
  %11 = icmp eq ptr %10, null
  br i1 %11, label %12, label %19

12:                                               ; preds = %4
  %13 = load i32, ptr %6, align 4
  %14 = load ptr, ptr %8, align 8
  %15 = load ptr, ptr %9, align 8
  %16 = getelementptr inbounds ptr, ptr %15, i64 9
  %17 = load ptr, ptr %16, align 8
  %18 = call noundef zeroext i1 %17(ptr noundef nonnull align 8 dereferenceable(8) %9, i32 noundef %13, ptr noundef %14)
  br label %28

19:                                               ; preds = %4
  %20 = load i32, ptr %6, align 4
  %21 = load ptr, ptr %7, align 8
  %22 = load i64, ptr %21, align 8
  %23 = load ptr, ptr %8, align 8
  %24 = load ptr, ptr %9, align 8
  %25 = getelementptr inbounds ptr, ptr %24, i64 10
  %26 = load ptr, ptr %25, align 8
  %27 = call noundef zeroext i1 %26(ptr noundef nonnull align 8 dereferenceable(8) %9, i32 noundef %20, i64 noundef %22, ptr noundef %23)
  br label %28

28:                                               ; preds = %19, %12
  %29 = phi i1 [ %18, %12 ], [ %27, %19 ]
  ret i1 %29
}