; Function Attrs: mustprogress uwtable
define noundef zeroext i1 @_ZNK10OpenSubdiv6v3_6_03Bfr14SurfaceFactory25isFaceNeighborhoodRegularEiPKlPi(ptr noundef nonnull align 8 dereferenceable(56) %0, i32 noundef %1, ptr noundef readonly %2, ptr noundef %3) local_unnamed_addr #2 align 2 {
  %5 = icmp eq ptr %2, null
  br i1 %5, label %6, label %11

6:                                                ; preds = %4
  %7 = load ptr, ptr %0, align 8
  %8 = getelementptr inbounds nuw i8, ptr %7, i64 72
  %9 = load ptr, ptr %8, align 8
  %10 = tail call noundef zeroext i1 %9(ptr noundef nonnull align 8 dereferenceable(8) %0, i32 noundef %1, ptr noundef %3)
  br label %17

11:                                               ; preds = %4
  %12 = load i64, ptr %2, align 8
  %13 = load ptr, ptr %0, align 8
  %14 = getelementptr inbounds nuw i8, ptr %13, i64 80
  %15 = load ptr, ptr %14, align 8
  %16 = tail call noundef zeroext i1 %15(ptr noundef nonnull align 8 dereferenceable(8) %0, i32 noundef %1, i64 noundef %12, ptr noundef %3)
  br label %17

17:                                               ; preds = %11, %6
  %18 = phi i1 [ %10, %6 ], [ %16, %11 ]
  ret i1 %18
}